target datalayout = "e-m:e-p270:32:32-p271:32:32-p272:64:64-i64:64-i128:128-f80:128-n8:16:32:64-S128"
target triple = "x86_64-pc-linux-gnu"

%struct.pmix_tma = type { ptr, ptr, ptr, ptr, ptr, ptr, ptr, ptr }
%struct.pmix_cpuset_t = type { ptr, ptr }

; Function Attrs: inlinehint nounwind uwtable
define internal void @pmix_bfrops_base_tma_cpuset_construct(ptr noundef %0, ptr noundef %1) #8 {
  %3 = alloca ptr, align 8
  %4 = alloca ptr, align 8
  store ptr %0, ptr %3, align 8, !tbaa !8
  store ptr %1, ptr %4, align 8, !tbaa !66
  %5 = load ptr, ptr %3, align 8, !tbaa !8
  call void @llvm.memset.p0.i64(ptr align 8 %5, i8 0, i64 16, i1 false)
  ret void
}

; Function Attrs: inlinehint nounwind uwtable
define internal ptr @pmix_tma_malloc(ptr noundef %0, i64 noundef %1) #8 {
  %3 = alloca ptr, align 8
  %4 = alloca ptr, align 8
  %5 = alloca i64, align 8
  store ptr %0, ptr %4, align 8, !tbaa !66
  store i64 %1, ptr %5, align 8, !tbaa !58
  %6 = load ptr, ptr %4, align 8, !tbaa !66
  %7 = icmp ne ptr null, %6
  br i1 %7, label %8, label %15

8:                                                ; preds = %2
  %9 = load ptr, ptr %4, align 8, !tbaa !66
  %10 = getelementptr inbounds nuw %struct.pmix_tma, ptr %9, i32 0, i32 0
  %11 = load ptr, ptr %10, align 8, !tbaa !265
  %12 = load ptr, ptr %4, align 8, !tbaa !66
  %13 = load i64, ptr %5, align 8, !tbaa !58
  %14 = call ptr %11(ptr noundef %12, i64 noundef %13)
  store ptr %14, ptr %3, align 8
  br label %18

15:                                               ; preds = %2
  %16 = load i64, ptr %5, align 8, !tbaa !58
  %17 = call noalias ptr @malloc(i64 noundef %16) #16
  store ptr %17, ptr %3, align 8
  br label %18

18:                                               ; preds = %15, %8
  %19 = load ptr, ptr %3, align 8
  ret ptr %19
}

; Function Attrs: inlinehint nounwind uwtable
define internal void @pmix_tma_free(ptr noundef %0, ptr noundef %1) #8 {
  %3 = alloca ptr, align 8
  %4 = alloca ptr, align 8
  store ptr %0, ptr %3, align 8, !tbaa !66
  store ptr %1, ptr %4, align 8, !tbaa !8
  %5 = load ptr, ptr %3, align 8, !tbaa !66
  %6 = icmp ne ptr null, %5
  br i1 %6, label %7, label %13

7:                                                ; preds = %2
  %8 = load ptr, ptr %3, align 8, !tbaa !66
  %9 = getelementptr inbounds nuw %struct.pmix_tma, ptr %8, i32 0, i32 5
  %10 = load ptr, ptr %9, align 8, !tbaa !143
  %11 = load ptr, ptr %3, align 8, !tbaa !66
  %12 = load ptr, ptr %4, align 8, !tbaa !8
  call void %10(ptr noundef %11, ptr noundef %12)
  br label %15

13:                                               ; preds = %2
  %14 = load ptr, ptr %4, align 8, !tbaa !8
  call void @free(ptr noundef %14) #15
  br label %15

15:                                               ; preds = %13, %7
  ret void
}

; Function Attrs: inlinehint nounwind uwtable
define internal ptr @pmix_bfrops_base_tma_cpuset_create(i64 noundef %0, ptr noundef %1) #8 {
  %3 = alloca ptr, align 8
  %4 = alloca i64, align 8
  %5 = alloca ptr, align 8
  %6 = alloca ptr, align 8
  %7 = alloca i64, align 8
  store i64 %0, ptr %4, align 8, !tbaa !58
  store ptr %1, ptr %5, align 8, !tbaa !66
  %8 = load i64, ptr %4, align 8, !tbaa !58
  %9 = icmp eq i64 0, %8
  br i1 %9, label %10, label %11

10:                                               ; preds = %2
  store ptr null, ptr %3, align 8
  br label %41

11:                                               ; preds = %2
  call void @llvm.lifetime.start.p0(i64 8, ptr %6) #15
  %12 = load ptr, ptr %5, align 8, !tbaa !66
  %13 = load i64, ptr %4, align 8, !tbaa !58
  %14 = mul i64 %13, 16
  %15 = call ptr @pmix_tma_malloc(ptr noundef %12, i64 noundef %14)
  store ptr %15, ptr %6, align 8, !tbaa !8
  %16 = load ptr, ptr %6, align 8, !tbaa !8
  %17 = icmp ne ptr null, %16
  %18 = xor i1 %17, true
  %19 = xor i1 %18, true
  %20 = zext i1 %19 to i32
  %21 = sext i32 %20 to i64
  %22 = call i64 @llvm.expect.i64(i64 %21, i64 1)
  %23 = icmp ne i64 %22, 0
  br i1 %23, label %24, label %39

24:                                               ; preds = %11
  call void @llvm.lifetime.start.p0(i64 8, ptr %7) #15
  store i64 0, ptr %7, align 8, !tbaa !58
  br label %25

25:                                               ; preds = %35, %24
  %26 = load i64, ptr %7, align 8, !tbaa !58
  %27 = load i64, ptr %4, align 8, !tbaa !58
  %28 = icmp ult i64 %26, %27
  br i1 %28, label %30, label %29

29:                                               ; preds = %25
  call void @llvm.lifetime.end.p0(i64 8, ptr %7) #15
  br label %38

30:                                               ; preds = %25
  %31 = load ptr, ptr %6, align 8, !tbaa !8
  %32 = load i64, ptr %7, align 8, !tbaa !58
  %33 = getelementptr inbounds nuw %struct.pmix_cpuset_t, ptr %31, i64 %32
  %34 = load ptr, ptr %5, align 8, !tbaa !66
  call void @pmix_bfrops_base_tma_cpuset_construct(ptr noundef %33, ptr noundef %34)
  br label %35

35:                                               ; preds = %30
  %36 = load i64, ptr %7, align 8, !tbaa !58
  %37 = add i64 %36, 1
  store i64 %37, ptr %7, align 8, !tbaa !58
  br label %25, !llvm.loop !340

38:                                               ; preds = %29
  br label %39

39:                                               ; preds = %38, %11
  %40 = load ptr, ptr %6, align 8, !tbaa !8
  store ptr %40, ptr %3, align 8
  call void @llvm.lifetime.end.p0(i64 8, ptr %6) #15
  br label %41

41:                                               ; preds = %39, %10
  %42 = load ptr, ptr %3, align 8
  ret ptr %42
}

; Function Attrs: inlinehint nounwind uwtable
define internal i32 @pmix_bfrops_base_tma_copy_cpuset(ptr noundef %0, ptr noundef %1, i16 noundef zeroext %2, ptr noundef %3) #8 {
  %5 = alloca i32, align 4
  %6 = alloca ptr, align 8
  %7 = alloca ptr, align 8
  %8 = alloca i16, align 2
  %9 = alloca ptr, align 8
  %10 = alloca ptr, align 8
  %11 = alloca i32, align 4
  %12 = alloca i32, align 4
  store ptr %0, ptr %6, align 8, !tbaa !8
  store ptr %1, ptr %7, align 8, !tbaa !8
  store i16 %2, ptr %8, align 2, !tbaa !9
  store ptr %3, ptr %9, align 8, !tbaa !66
  call void @llvm.lifetime.start.p0(i64 8, ptr %10) #15
  %13 = load ptr, ptr %9, align 8, !tbaa !66
  %14 = call ptr @pmix_bfrops_base_tma_cpuset_create(i64 noundef 1, ptr noundef %13)
  store ptr %14, ptr %10, align 8, !tbaa !8
  %15 = load ptr, ptr %10, align 8, !tbaa !8
  %16 = icmp eq ptr null, %15
  %17 = xor i1 %16, true
  %18 = xor i1 %17, true
  %19 = zext i1 %18 to i32
  %20 = sext i32 %19 to i64
  %21 = call i64 @llvm.expect.i64(i64 %20, i64 0)
  %22 = icmp ne i64 %21, 0
  br i1 %22, label %23, label %24

23:                                               ; preds = %4
  store i32 -32, ptr %5, align 4
  store i32 1, ptr %11, align 4
  br label %38

24:                                               ; preds = %4
  call void @llvm.lifetime.start.p0(i64 4, ptr %12) #15
  %25 = load ptr, ptr %10, align 8, !tbaa !8
  %26 = load ptr, ptr %7, align 8, !tbaa !8
  %27 = call i32 @pmix_hwloc_copy_cpuset(ptr noundef %25, ptr noundef %26)
  store i32 %27, ptr %12, align 4, !tbaa !31
  %28 = load i32, ptr %12, align 4, !tbaa !31
  %29 = icmp eq i32 0, %28
  br i1 %29, label %30, label %33

30:                                               ; preds = %24
  %31 = load ptr, ptr %10, align 8, !tbaa !8
  %32 = load ptr, ptr %6, align 8, !tbaa !8
  store ptr %31, ptr %32, align 8, !tbaa !8
  br label %36

33:                                               ; preds = %24
  %34 = load ptr, ptr %9, align 8, !tbaa !66
  %35 = load ptr, ptr %10, align 8, !tbaa !8
  call void @pmix_tma_free(ptr noundef %34, ptr noundef %35)
  br label %36

36:                                               ; preds = %33, %30
  %37 = load i32, ptr %12, align 4, !tbaa !31
  store i32 %37, ptr %5, align 4
  store i32 1, ptr %11, align 4
  call void @llvm.lifetime.end.p0(i64 4, ptr %12) #15
  br label %38

38:                                               ; preds = %36, %23
  call void @llvm.lifetime.end.p0(i64 8, ptr %10) #15
  %39 = load i32, ptr %5, align 4
  ret i32 %39
}